; Function Attrs: mustprogress nofree norecurse nosync nounwind willreturn memory(readwrite, argmem: write, inaccessiblemem: none) uwtable
define void @lv_display_set_flush_cb(ptr noundef writeonly %0, ptr noundef %1) local_unnamed_addr #5 {
  %3 = icmp eq ptr %0, null
  br i1 %3, label %4, label %.thread

4:                                                ; preds = %2
  %5 = load ptr, ptr getelementptr inbounds nuw (i8, ptr @lv_global, i64 40), align 8, !tbaa !33
  %6 = icmp eq ptr %5, null
  br i1 %6, label %8, label %.thread

.thread:                                          ; preds = %2, %4
  %.06 = phi ptr [ %5, %4 ], [ %0, %2 ]
  %7 = getelementptr inbounds nuw i8, ptr %.06, i64 56
  store ptr %1, ptr %7, align 8, !tbaa !67
  br label %8

8:                                                ; preds = %4, %.thread
  ret void
}